target datalayout = "e-m:e-p270:32:32-p271:32:32-p272:64:64-i64:64-i128:128-f80:128-n8:16:32:64-S128"
target triple = "x86_64-pc-linux-gnu"

%struct.expert_field = type { i32, i32 }
%struct._Kind = type { ptr, i32, i32 }

@ei_reload_truncated_field = internal global %struct.expert_field zeroinitializer, align 4
@hf_reload_length_uint16 = internal global i32 0, align 4
@.str.17 = private unnamed_addr constant [14 x i8] c": %d elements\00", align 1
@.str.42 = private unnamed_addr constant [6 x i8] c" (%s)\00", align 1
@hf_reload_kinddata_kind = internal global i32 0, align 4
@hf_reload_kindid = internal global i32 0, align 4
@hf_reload_findans = internal global i32 0, align 4
@hf_reload_findkinddata_closest = internal global i32 0, align 4
@hf_reload_findkinddata = internal global i32 0, align 4
@ett_reload_findans = internal global i32 0, align 4
@ett_reload_findkinddata = internal global i32 0, align 4
@kindidlist_uats = internal global ptr null, align 8
@nreloadkinds = internal global i32 0, align 4
@.str.724 = private unnamed_addr constant [20 x i8] c" (FindKindData<%d>)\00", align 1
@.str.725 = private unnamed_addr constant [18 x i8] c"Truncated FindAns\00", align 1
@.str.726 = private unnamed_addr constant [23 x i8] c"Truncated FindKindData\00", align 1

; Function Attrs: nounwind null_pointer_is_valid sspstrong uwtable
define internal ptr @getKindFromId(i32 noundef %0) #4 {
  %2 = alloca ptr, align 8
  %3 = alloca i32, align 4
  %4 = alloca i32, align 4
  %5 = alloca i32, align 4
  store i32 %0, ptr %3, align 4
  call void @llvm.lifetime.start.p0(i64 4, ptr %4) #8
  store i32 0, ptr %4, align 4
  br label %6

6:                                                ; preds = %25, %1
  %7 = load i32, ptr %4, align 4
  %8 = load i32, ptr @nreloadkinds, align 4
  %9 = icmp ult i32 %7, %8
  br i1 %9, label %10, label %28

10:                                               ; preds = %6
  %11 = load i32, ptr %3, align 4
  %12 = load ptr, ptr @kindidlist_uats, align 8
  %13 = load i32, ptr %4, align 4
  %14 = zext i32 %13 to i64
  %15 = getelementptr %struct._Kind, ptr %12, i64 %14
  %16 = getelementptr inbounds nuw %struct._Kind, ptr %15, i32 0, i32 1
  %17 = load i32, ptr %16, align 8
  %18 = icmp eq i32 %11, %17
  br i1 %18, label %19, label %24

19:                                               ; preds = %10
  %20 = load ptr, ptr @kindidlist_uats, align 8
  %21 = load i32, ptr %4, align 4
  %22 = zext i32 %21 to i64
  %23 = getelementptr %struct._Kind, ptr %20, i64 %22
  store ptr %23, ptr %2, align 8
  store i32 1, ptr %5, align 4
  br label %50

24:                                               ; preds = %10
  br label %25

25:                                               ; preds = %24
  %26 = load i32, ptr %4, align 4
  %27 = add i32 %26, 1
  store i32 %27, ptr %4, align 4
  br label %6, !llvm.loop !30

28:                                               ; preds = %6
  store i32 0, ptr %4, align 4
  br label %29

29:                                               ; preds = %46, %28
  %30 = load i32, ptr %4, align 4
  %31 = zext i32 %30 to i64
  %32 = icmp ult i64 %31, 18
  br i1 %32, label %33, label %49

33:                                               ; preds = %29
  %34 = load i32, ptr %3, align 4
  %35 = load i32, ptr %4, align 4
  %36 = zext i32 %35 to i64
  %37 = getelementptr [18 x %struct._Kind], ptr @predefined_kinds, i64 0, i64 %36
  %38 = getelementptr inbounds nuw %struct._Kind, ptr %37, i32 0, i32 1
  %39 = load i32, ptr %38, align 8
  %40 = icmp eq i32 %34, %39
  br i1 %40, label %41, label %45

41:                                               ; preds = %33
  %42 = load i32, ptr %4, align 4
  %43 = zext i32 %42 to i64
  %44 = getelementptr %struct._Kind, ptr @predefined_kinds, i64 %43
  store ptr %44, ptr %2, align 8
  store i32 1, ptr %5, align 4
  br label %50

45:                                               ; preds = %33
  br label %46

46:                                               ; preds = %45
  %47 = load i32, ptr %4, align 4
  %48 = add i32 %47, 1
  store i32 %48, ptr %4, align 4
  br label %29, !llvm.loop !31

49:                                               ; preds = %29
  store ptr null, ptr %2, align 8
  store i32 1, ptr %5, align 4
  br label %50

50:                                               ; preds = %49, %41, %19
  call void @llvm.lifetime.end.p0(i64 4, ptr %4) #8
  %51 = load ptr, ptr %2, align 8
  ret ptr %51
}

; Function Attrs: null_pointer_is_valid sspstrong uwtable
define internal i32 @dissect_kindid(i32 noundef %0, ptr noundef %1, ptr noundef %2, i16 noundef zeroext %3, ptr noundef %4) #0 {
  %6 = alloca i32, align 4
  %7 = alloca ptr, align 8
  %8 = alloca ptr, align 8
  %9 = alloca i16, align 2
  %10 = alloca ptr, align 8
  %11 = alloca ptr, align 8
  %12 = alloca i32, align 4
  %13 = alloca i32, align 4
  store i32 %0, ptr %6, align 4
  store ptr %1, ptr %7, align 8
  store ptr %2, ptr %8, align 8
  store i16 %3, ptr %9, align 2
  store ptr %4, ptr %10, align 8
  call void @llvm.lifetime.start.p0(i64 8, ptr %11) #8
  call void @llvm.lifetime.start.p0(i64 4, ptr %12) #8
  store i32 0, ptr %12, align 4
  call void @llvm.lifetime.start.p0(i64 4, ptr %13) #8
  %14 = load i32, ptr @hf_reload_kindid, align 4
  store i32 %14, ptr %13, align 4
  %15 = load i32, ptr %6, align 4
  %16 = icmp sge i32 %15, 0
  br i1 %16, label %17, label %19

17:                                               ; preds = %5
  %18 = load i32, ptr %6, align 4
  store i32 %18, ptr %13, align 4
  br label %19

19:                                               ; preds = %17, %5
  %20 = load ptr, ptr %10, align 8
  store ptr null, ptr %20, align 8
  %21 = load ptr, ptr %7, align 8
  %22 = load i16, ptr %9, align 2
  %23 = zext i16 %22 to i32
  %24 = call i32 @tvb_get_ntohl(ptr noundef %21, i32 noundef %23)
  store i32 %24, ptr %12, align 4
  %25 = load i32, ptr %12, align 4
  %26 = call ptr @getKindFromId(i32 noundef %25)
  %27 = load ptr, ptr %10, align 8
  store ptr %26, ptr %27, align 8
  %28 = load ptr, ptr %8, align 8
  %29 = load i32, ptr %13, align 4
  %30 = load ptr, ptr %7, align 8
  %31 = load i16, ptr %9, align 2
  %32 = zext i16 %31 to i32
  %33 = call ptr @proto_tree_add_item(ptr noundef %28, i32 noundef %29, ptr noundef %30, i32 noundef %32, i32 noundef 4, i32 noundef 0)
  store ptr %33, ptr %11, align 8
  %34 = load ptr, ptr %10, align 8
  %35 = load ptr, ptr %34, align 8
  %36 = icmp ne ptr null, %35
  br i1 %36, label %37, label %49

37:                                               ; preds = %19
  %38 = load ptr, ptr %10, align 8
  %39 = load ptr, ptr %38, align 8
  %40 = getelementptr inbounds nuw %struct._Kind, ptr %39, i32 0, i32 0
  %41 = load ptr, ptr %40, align 8
  %42 = icmp ne ptr %41, null
  br i1 %42, label %43, label %49

43:                                               ; preds = %37
  %44 = load ptr, ptr %11, align 8
  %45 = load ptr, ptr %10, align 8
  %46 = load ptr, ptr %45, align 8
  %47 = getelementptr inbounds nuw %struct._Kind, ptr %46, i32 0, i32 0
  %48 = load ptr, ptr %47, align 8
  call void (ptr, ptr, ...) @proto_item_append_text(ptr noundef %44, ptr noundef @.str.42, ptr noundef %48)
  br label %49

49:                                               ; preds = %43, %37, %19
  call void @llvm.lifetime.end.p0(i64 4, ptr %13) #8
  call void @llvm.lifetime.end.p0(i64 4, ptr %12) #8
  call void @llvm.lifetime.end.p0(i64 8, ptr %11) #8
  ret i32 4
}

; Function Attrs: null_pointer_is_valid sspstrong uwtable
define internal i32 @dissect_findans(ptr noundef %0, ptr noundef %1, ptr noundef %2, i16 noundef zeroext %3, i16 noundef zeroext %4) #0 {
  %6 = alloca ptr, align 8
  %7 = alloca ptr, align 8
  %8 = alloca ptr, align 8
  %9 = alloca i16, align 2
  %10 = alloca i16, align 2
  %11 = alloca ptr, align 8
  %12 = alloca ptr, align 8
  %13 = alloca i16, align 2
  %14 = alloca i32, align 4
  %15 = alloca i32, align 4
  %16 = alloca ptr, align 8
  %17 = alloca ptr, align 8
  %18 = alloca i16, align 2
  %19 = alloca ptr, align 8
  %20 = alloca i32, align 4
  store ptr %0, ptr %6, align 8
  store ptr %1, ptr %7, align 8
  store ptr %2, ptr %8, align 8
  store i16 %3, ptr %9, align 2
  store i16 %4, ptr %10, align 2
  call void @llvm.lifetime.start.p0(i64 8, ptr %11) #8
  call void @llvm.lifetime.start.p0(i64 8, ptr %12) #8
  call void @llvm.lifetime.start.p0(i64 2, ptr %13) #8
  %21 = load ptr, ptr %8, align 8
  %22 = load i32, ptr @hf_reload_findans, align 4
  %23 = load ptr, ptr %6, align 8
  %24 = load i16, ptr %9, align 2
  %25 = zext i16 %24 to i32
  %26 = load i16, ptr %10, align 2
  %27 = zext i16 %26 to i32
  %28 = call ptr @proto_tree_add_item(ptr noundef %21, i32 noundef %22, ptr noundef %23, i32 noundef %25, i32 noundef %27, i32 noundef 0)
  store ptr %28, ptr %11, align 8
  %29 = load ptr, ptr %11, align 8
  %30 = load i32, ptr @ett_reload_findans, align 4
  %31 = call ptr @proto_item_add_subtree(ptr noundef %29, i32 noundef %30)
  store ptr %31, ptr %12, align 8
  %32 = load ptr, ptr %6, align 8
  %33 = load i16, ptr %9, align 2
  %34 = zext i16 %33 to i32
  %35 = call zeroext i16 @tvb_get_ntohs(ptr noundef %32, i32 noundef %34)
  store i16 %35, ptr %13, align 2
  %36 = load ptr, ptr %11, align 8
  %37 = load i16, ptr %13, align 2
  %38 = zext i16 %37 to i32
  call void (ptr, ptr, ...) @proto_item_append_text(ptr noundef %36, ptr noundef @.str.724, i32 noundef %38)
  %39 = load i16, ptr %13, align 2
  %40 = zext i16 %39 to i32
  %41 = add i32 %40, 2
  %42 = load i16, ptr %10, align 2
  %43 = zext i16 %42 to i32
  %44 = icmp sgt i32 %41, %43
  br i1 %44, label %45, label %49

45:                                               ; preds = %5
  %46 = load ptr, ptr %7, align 8
  %47 = load ptr, ptr %11, align 8
  %48 = call ptr (ptr, ptr, ptr, ptr, ...) @expert_add_info_format(ptr noundef %46, ptr noundef %47, ptr noundef @ei_reload_truncated_field, ptr noundef @.str.725)
  br label %49

49:                                               ; preds = %45, %5
  %50 = load ptr, ptr %12, align 8
  %51 = load i32, ptr @hf_reload_length_uint16, align 4
  %52 = load ptr, ptr %6, align 8
  %53 = load i16, ptr %9, align 2
  %54 = zext i16 %53 to i32
  %55 = load i16, ptr %13, align 2
  %56 = zext i16 %55 to i32
  %57 = call ptr @proto_tree_add_uint(ptr noundef %50, i32 noundef %51, ptr noundef %52, i32 noundef %54, i32 noundef 2, i32 noundef %56)
  call void @llvm.lifetime.start.p0(i64 4, ptr %14) #8
  store i32 0, ptr %14, align 4
  call void @llvm.lifetime.start.p0(i64 4, ptr %15) #8
  store i32 0, ptr %15, align 4
  br label %58

58:                                               ; preds = %159, %49
  %59 = load i32, ptr %14, align 4
  %60 = icmp sge i32 %59, 0
  br i1 %60, label %61, label %66

61:                                               ; preds = %58
  %62 = load i32, ptr %14, align 4
  %63 = load i16, ptr %13, align 2
  %64 = zext i16 %63 to i32
  %65 = icmp slt i32 %62, %64
  br label %66

66:                                               ; preds = %61, %58
  %67 = phi i1 [ false, %58 ], [ %65, %61 ]
  br i1 %67, label %68, label %160

68:                                               ; preds = %66
  call void @llvm.lifetime.start.p0(i64 8, ptr %16) #8
  call void @llvm.lifetime.start.p0(i64 8, ptr %17) #8
  call void @llvm.lifetime.start.p0(i64 2, ptr %18) #8
  call void @llvm.lifetime.start.p0(i64 8, ptr %19) #8
  %69 = load ptr, ptr %6, align 8
  %70 = load i16, ptr %9, align 2
  %71 = zext i16 %70 to i32
  %72 = add i32 %71, 2
  %73 = load i32, ptr %14, align 4
  %74 = add i32 %72, %73
  %75 = add i32 %74, 4
  %76 = call zeroext i8 @tvb_get_uint8(ptr noundef %69, i32 noundef %75)
  %77 = zext i8 %76 to i32
  %78 = add i32 5, %77
  %79 = trunc i32 %78 to i16
  store i16 %79, ptr %18, align 2
  %80 = load i32, ptr %14, align 4
  %81 = load i16, ptr %18, align 2
  %82 = zext i16 %81 to i32
  %83 = add i32 %80, %82
  %84 = load i16, ptr %13, align 2
  %85 = zext i16 %84 to i32
  %86 = icmp sgt i32 %83, %85
  br i1 %86, label %87, label %103

87:                                               ; preds = %68
  %88 = load ptr, ptr %12, align 8
  %89 = load i32, ptr @hf_reload_findkinddata, align 4
  %90 = load ptr, ptr %6, align 8
  %91 = load i16, ptr %9, align 2
  %92 = zext i16 %91 to i32
  %93 = load i32, ptr %14, align 4
  %94 = add i32 %92, %93
  %95 = load i16, ptr %13, align 2
  %96 = zext i16 %95 to i32
  %97 = load i32, ptr %14, align 4
  %98 = sub i32 %96, %97
  %99 = call ptr @proto_tree_add_item(ptr noundef %88, i32 noundef %89, ptr noundef %90, i32 noundef %94, i32 noundef %98, i32 noundef 0)
  store ptr %99, ptr %16, align 8
  %100 = load ptr, ptr %7, align 8
  %101 = load ptr, ptr %16, align 8
  %102 = call ptr (ptr, ptr, ptr, ptr, ...) @expert_add_info_format(ptr noundef %100, ptr noundef %101, ptr noundef @ei_reload_truncated_field, ptr noundef @.str.726)
  store i32 3, ptr %20, align 4
  br label %157

103:                                              ; preds = %68
  %104 = load ptr, ptr %12, align 8
  %105 = load i32, ptr @hf_reload_findkinddata, align 4
  %106 = load ptr, ptr %6, align 8
  %107 = load i16, ptr %9, align 2
  %108 = zext i16 %107 to i32
  %109 = add i32 %108, 2
  %110 = load i32, ptr %14, align 4
  %111 = add i32 %109, %110
  %112 = load i16, ptr %18, align 2
  %113 = zext i16 %112 to i32
  %114 = call ptr @proto_tree_add_item(ptr noundef %104, i32 noundef %105, ptr noundef %106, i32 noundef %111, i32 noundef %113, i32 noundef 0)
  store ptr %114, ptr %16, align 8
  %115 = load ptr, ptr %16, align 8
  %116 = load i32, ptr @ett_reload_findkinddata, align 4
  %117 = call ptr @proto_item_add_subtree(ptr noundef %115, i32 noundef %116)
  store ptr %117, ptr %17, align 8
  %118 = load i32, ptr @hf_reload_kinddata_kind, align 4
  %119 = load ptr, ptr %6, align 8
  %120 = load ptr, ptr %17, align 8
  %121 = load i16, ptr %9, align 2
  %122 = zext i16 %121 to i32
  %123 = add i32 %122, 2
  %124 = load i32, ptr %14, align 4
  %125 = add i32 %123, %124
  %126 = trunc i32 %125 to i16
  %127 = call i32 @dissect_kindid(i32 noundef %118, ptr noundef %119, ptr noundef %120, i16 noundef zeroext %126, ptr noundef %19)
  %128 = load i32, ptr @hf_reload_findkinddata_closest, align 4
  %129 = load ptr, ptr %6, align 8
  %130 = load ptr, ptr %7, align 8
  %131 = load ptr, ptr %17, align 8
  %132 = load i16, ptr %9, align 2
  %133 = zext i16 %132 to i32
  %134 = add i32 %133, 2
  %135 = load i32, ptr %14, align 4
  %136 = add i32 %134, %135
  %137 = add i32 %136, 4
  %138 = trunc i32 %137 to i16
  %139 = load i16, ptr %13, align 2
  %140 = zext i16 %139 to i32
  %141 = sub i32 %140, 4
  %142 = load i32, ptr %14, align 4
  %143 = sub i32 %141, %142
  %144 = trunc i32 %143 to i16
  %145 = call i32 @dissect_resourceid(i32 noundef %128, ptr noundef %129, ptr noundef %130, ptr noundef %131, i16 noundef zeroext %138, i16 noundef zeroext %144)
  %146 = load i16, ptr %18, align 2
  %147 = zext i16 %146 to i32
  %148 = icmp sle i32 %147, 0
  br i1 %148, label %149, label %150

149:                                              ; preds = %103
  store i32 3, ptr %20, align 4
  br label %157

150:                                              ; preds = %103
  %151 = load i16, ptr %18, align 2
  %152 = zext i16 %151 to i32
  %153 = load i32, ptr %14, align 4
  %154 = add i32 %153, %152
  store i32 %154, ptr %14, align 4
  %155 = load i32, ptr %15, align 4
  %156 = add i32 %155, 1
  store i32 %156, ptr %15, align 4
  store i32 0, ptr %20, align 4
  br label %157

157:                                              ; preds = %150, %149, %87
  call void @llvm.lifetime.end.p0(i64 8, ptr %19) #8
  call void @llvm.lifetime.end.p0(i64 2, ptr %18) #8
  call void @llvm.lifetime.end.p0(i64 8, ptr %17) #8
  call void @llvm.lifetime.end.p0(i64 8, ptr %16) #8
  %158 = load i32, ptr %20, align 4
  switch i32 %158, label %165 [
    i32 0, label %159
    i32 3, label %160
  ]

159:                                              ; preds = %157
  br label %58, !llvm.loop !20

160:                                              ; preds = %157, %66
  %161 = load ptr, ptr %11, align 8
  %162 = load i32, ptr %15, align 4
  call void (ptr, ptr, ...) @proto_item_append_text(ptr noundef %161, ptr noundef @.str.17, i32 noundef %162)
  call void @llvm.lifetime.end.p0(i64 4, ptr %15) #8
  call void @llvm.lifetime.end.p0(i64 4, ptr %14) #8
  %163 = load i16, ptr %10, align 2
  %164 = zext i16 %163 to i32
  store i32 1, ptr %20, align 4
  call void @llvm.lifetime.end.p0(i64 2, ptr %13) #8
  call void @llvm.lifetime.end.p0(i64 8, ptr %12) #8
  call void @llvm.lifetime.end.p0(i64 8, ptr %11) #8
  ret i32 %164

165:                                              ; preds = %157
  unreachable
}