; Function Attrs: null_pointer_is_valid sspstrong uwtable
define internal fastcc void @dissect_findans(ptr noundef %0, ptr noundef %1, ptr noundef %2, i16 noundef zeroext %3, i16 noundef zeroext %4) unnamed_addr #0 {
  %6 = load i32, ptr @hf_reload_findans, align 4
  %7 = zext i16 %3 to i32
  %8 = zext i16 %4 to i32
  %9 = tail call ptr @proto_tree_add_item(ptr noundef %2, i32 noundef %6, ptr noundef %0, i32 noundef %7, i32 noundef %8, i32 noundef 0)
  %10 = load i32, ptr @ett_reload_findans, align 4
  %11 = tail call ptr @proto_item_add_subtree(ptr noundef %9, i32 noundef %10)
  %12 = tail call zeroext i16 @tvb_get_ntohs(ptr noundef %0, i32 noundef %7)
  %13 = zext i16 %12 to i32
  tail call void (ptr, ptr, ...) @proto_item_append_text(ptr noundef %9, ptr noundef nonnull @.str.724, i32 noundef %13)
  %14 = add nuw nsw i32 %13, 2
  %15 = icmp samesign ugt i32 %14, %8
  br i1 %15, label %16, label %18

16:                                               ; preds = %5
  %17 = tail call ptr (ptr, ptr, ptr, ptr, ...) @expert_add_info_format(ptr noundef %1, ptr noundef %9, ptr noundef nonnull @ei_reload_truncated_field, ptr noundef nonnull @.str.725)
  br label %18

18:                                               ; preds = %16, %5
  %19 = load i32, ptr @hf_reload_length_uint16, align 4
  %20 = tail call ptr @proto_tree_add_uint(ptr noundef %11, i32 noundef %19, ptr noundef %0, i32 noundef %7, i32 noundef 2, i32 noundef %13)
  %.not = icmp eq i16 %12, 0
  br i1 %.not, label %.loopexit, label %.lr.ph

.lr.ph:                                           ; preds = %18
  %21 = add nuw nsw i32 %7, 2
  %22 = add nuw nsw i32 %13, 65532
  br label %23

23:                                               ; preds = %.lr.ph, %64
  %.05875 = phi i32 [ 0, %.lr.ph ], [ %29, %64 ]
  %.05974 = phi i32 [ 0, %.lr.ph ], [ %70, %64 ]
  %24 = add nuw nsw i32 %21, %.05875
  %25 = add nuw nsw i32 %24, 4
  %26 = tail call zeroext i8 @tvb_get_uint8(ptr noundef %0, i32 noundef %25)
  %27 = zext i8 %26 to i32
  %28 = add nuw nsw i32 %27, 5
  %29 = add nuw nsw i32 %28, %.05875
  %30 = icmp samesign ugt i32 %29, %13
  %31 = load i32, ptr @hf_reload_findkinddata, align 4
  br i1 %30, label %.thread, label %36

.thread:                                          ; preds = %23
  %32 = add nuw nsw i32 %.05875, %7
  %33 = sub nsw i32 %13, %.05875
  %34 = tail call ptr @proto_tree_add_item(ptr noundef %11, i32 noundef %31, ptr noundef %0, i32 noundef %32, i32 noundef %33, i32 noundef 0)
  %35 = tail call ptr (ptr, ptr, ptr, ptr, ...) @expert_add_info_format(ptr noundef %1, ptr noundef %34, ptr noundef nonnull @ei_reload_truncated_field, ptr noundef nonnull @.str.726)
  br label %.loopexit

36:                                               ; preds = %23
  %37 = tail call ptr @proto_tree_add_item(ptr noundef %11, i32 noundef %31, ptr noundef %0, i32 noundef %24, i32 noundef %28, i32 noundef 0)
  %38 = load i32, ptr @ett_reload_findkinddata, align 4
  %39 = tail call ptr @proto_item_add_subtree(ptr noundef %37, i32 noundef %38)
  %40 = load i32, ptr @hf_reload_kinddata_kind, align 4
  %41 = load i32, ptr @hf_reload_kindid, align 4
  %42 = icmp slt i32 %40, 0
  %spec.select.i = select i1 %42, i32 %41, i32 %40
  %43 = and i32 %24, 65535
  %44 = tail call i32 @tvb_get_ntohl(ptr noundef %0, i32 noundef %43)
  %45 = load i32, ptr @nreloadkinds, align 4
  %.not.i.i = icmp eq i32 %45, 0
  br i1 %.not.i.i, label %.preheader.i.i.preheader, label %.lr.ph.i.i

.preheader.i.i.preheader:                         ; preds = %47, %36
  br label %.preheader.i.i

.lr.ph.i.i:                                       ; preds = %36
  %46 = load ptr, ptr @kindidlist_uats, align 8
  %wide.trip.count.i.i = zext i32 %45 to i64
  br label %48

47:                                               ; preds = %48
  %indvars.iv.next.i.i = add nuw nsw i64 %indvars.iv.i.i, 1
  %exitcond.not.i.i = icmp eq i64 %indvars.iv.next.i.i, %wide.trip.count.i.i
  br i1 %exitcond.not.i.i, label %.preheader.i.i.preheader, label %48, !llvm.loop !10

48:                                               ; preds = %47, %.lr.ph.i.i
  %indvars.iv.i.i = phi i64 [ 0, %.lr.ph.i.i ], [ %indvars.iv.next.i.i, %47 ]
  %49 = getelementptr %struct._Kind, ptr %46, i64 %indvars.iv.i.i
  %50 = getelementptr inbounds nuw i8, ptr %49, i64 8
  %51 = load i32, ptr %50, align 8
  %52 = icmp eq i32 %44, %51
  br i1 %52, label %getKindFromId.exit.i, label %47

53:                                               ; preds = %.preheader.i.i
  %indvars.iv.next22.i.i = add nuw nsw i64 %indvars.iv21.i.i, 1
  %exitcond24.not.i.i = icmp eq i64 %indvars.iv.next22.i.i, 18
  br i1 %exitcond24.not.i.i, label %getKindFromId.exit.i.thread, label %.preheader.i.i, !llvm.loop !11

getKindFromId.exit.i.thread:                      ; preds = %53
  %54 = tail call ptr @proto_tree_add_item(ptr noundef %39, i32 noundef %spec.select.i, ptr noundef %0, i32 noundef %43, i32 noundef 4, i32 noundef 0)
  br label %64

.preheader.i.i:                                   ; preds = %.preheader.i.i.preheader, %53
  %indvars.iv21.i.i = phi i64 [ %indvars.iv.next22.i.i, %53 ], [ 0, %.preheader.i.i.preheader ]
  %55 = getelementptr [18 x %struct._Kind], ptr @predefined_kinds, i64 0, i64 %indvars.iv21.i.i, i32 1
  %56 = load i32, ptr %55, align 8
  %57 = icmp eq i32 %44, %56
  br i1 %57, label %58, label %53

58:                                               ; preds = %.preheader.i.i
  %59 = getelementptr %struct._Kind, ptr @predefined_kinds, i64 %indvars.iv21.i.i
  br label %getKindFromId.exit.i

getKindFromId.exit.i:                             ; preds = %48, %58
  %.010.i.i = phi ptr [ %59, %58 ], [ %49, %48 ]
  %60 = tail call ptr @proto_tree_add_item(ptr noundef %39, i32 noundef %spec.select.i, ptr noundef %0, i32 noundef %43, i32 noundef 4, i32 noundef 0)
  %.not.i = icmp eq ptr %.010.i.i, null
  br i1 %.not.i, label %64, label %61

61:                                               ; preds = %getKindFromId.exit.i
  %62 = load ptr, ptr %.010.i.i, align 8
  %.not17.i = icmp eq ptr %62, null
  br i1 %.not17.i, label %64, label %63

63:                                               ; preds = %61
  tail call void (ptr, ptr, ...) @proto_item_append_text(ptr noundef %60, ptr noundef nonnull @.str.42, ptr noundef nonnull %62)
  br label %64

64:                                               ; preds = %63, %61, %getKindFromId.exit.i, %getKindFromId.exit.i.thread
  %65 = load i32, ptr @hf_reload_findkinddata_closest, align 4
  %66 = trunc i32 %25 to i16
  %67 = sub nsw i32 %22, %.05875
  %68 = trunc i32 %67 to i16
  %69 = tail call fastcc i32 @dissect_resourceid(i32 noundef %65, ptr noundef %0, ptr noundef %1, ptr noundef %39, i16 noundef zeroext %66, i16 noundef zeroext %68)
  %70 = add i32 %.05974, 1
  %71 = icmp samesign ult i32 %29, %13
  br i1 %71, label %23, label %.loopexit

.loopexit:                                        ; preds = %64, %18, %.thread
  %.05973 = phi i32 [ %.05974, %.thread ], [ 0, %18 ], [ %70, %64 ]
  tail call void (ptr, ptr, ...) @proto_item_append_text(ptr noundef %9, ptr noundef nonnull @.str.17, i32 noundef %.05973)
  ret void
}